; ModuleID = 'source-C-CXX/52/41.c'
source_filename = "source-C-CXX/52/41.c"
target datalayout = "e-m:e-p270:32:32-p271:32:32-p272:64:64-i64:64-f80:128-n8:16:32:64-S128"
target triple = "x86_64-pc-linux-gnu"

@.str = private unnamed_addr constant [3 x i8] c"%d\00", align 1
@.str.1 = private unnamed_addr constant [4 x i8] c",%d\00", align 1

; Function Attrs: nofree nounwind sspstrong uwtable
define dso_local void @main() local_unnamed_addr #0 {
  %1 = alloca [302 x i32], align 16
  %2 = alloca i32, align 4
  %3 = bitcast [302 x i32]* %1 to i8*
  call void @llvm.lifetime.start.p0i8(i64 1208, i8* nonnull %3) #3
  %4 = bitcast i32* %2 to i8*
  call void @llvm.lifetime.start.p0i8(i64 4, i8* nonnull %4) #3
  %5 = call i32 (i8*, ...) @__isoc99_scanf(i8* getelementptr inbounds ([3 x i8], [3 x i8]* @.str, i64 0, i64 0), i32* nonnull %2)
  %6 = load i32, i32* %2, align 4, !tbaa !5
  %7 = icmp sgt i32 %6, 0
  br i1 %7, label %15, label %62

8:                                                ; preds = %15
  %9 = icmp slt i32 %20, 2
  br i1 %9, label %62, label %10

10:                                               ; preds = %8
  %11 = add nsw i32 %20, -1
  %12 = zext i32 %11 to i64
  %13 = zext i32 %20 to i64
  %14 = add nsw i64 %13, -2
  br label %26

15:                                               ; preds = %0, %15
  %16 = phi i64 [ %19, %15 ], [ 0, %0 ]
  %17 = getelementptr inbounds [302 x i32], [302 x i32]* %1, i64 0, i64 %16
  %18 = call i32 (i8*, ...) @__isoc99_scanf(i8* getelementptr inbounds ([3 x i8], [3 x i8]* @.str, i64 0, i64 0), i32* nonnull %17)
  %19 = add nuw nsw i64 %16, 1
  %20 = load i32, i32* %2, align 4, !tbaa !5
  %21 = sext i32 %20 to i64
  %22 = icmp slt i64 %19, %21
  br i1 %22, label %15, label %8, !llvm.loop !9

23:                                               ; preds = %46, %84, %26
  %24 = add nuw nsw i64 %28, 1
  %25 = icmp eq i64 %29, %12
  br i1 %25, label %62, label %26, !llvm.loop !11

26:                                               ; preds = %10, %23
  %27 = phi i64 [ 0, %10 ], [ %29, %23 ]
  %28 = phi i64 [ 1, %10 ], [ %24, %23 ]
  %29 = add nuw nsw i64 %27, 1
  %30 = getelementptr inbounds [302 x i32], [302 x i32]* %1, i64 0, i64 %27
  %31 = trunc i64 %29 to i32
  %32 = icmp sgt i32 %20, %31
  br i1 %32, label %33, label %23

33:                                               ; preds = %26
  %34 = xor i64 %27, -1
  %35 = add nsw i64 %34, %13
  %36 = and i64 %35, 1
  %37 = icmp eq i64 %36, 0
  br i1 %37, label %46, label %38

38:                                               ; preds = %33
  %39 = getelementptr inbounds [302 x i32], [302 x i32]* %1, i64 0, i64 %28
  %40 = load i32, i32* %39, align 4, !tbaa !5
  %41 = load i32, i32* %30, align 4, !tbaa !5
  %42 = icmp eq i32 %40, %41
  br i1 %42, label %43, label %44

43:                                               ; preds = %38
  store i32 -1, i32* %39, align 4, !tbaa !5
  br label %44

44:                                               ; preds = %43, %38
  %45 = add nuw nsw i64 %28, 1
  br label %46

46:                                               ; preds = %44, %33
  %47 = phi i64 [ %45, %44 ], [ %28, %33 ]
  %48 = icmp eq i64 %14, %27
  br i1 %48, label %23, label %49

49:                                               ; preds = %46, %84
  %50 = phi i64 [ %85, %84 ], [ %47, %46 ]
  %51 = getelementptr inbounds [302 x i32], [302 x i32]* %1, i64 0, i64 %50
  %52 = load i32, i32* %51, align 4, !tbaa !5
  %53 = load i32, i32* %30, align 4, !tbaa !5
  %54 = icmp eq i32 %52, %53
  br i1 %54, label %55, label %56

55:                                               ; preds = %49
  store i32 -1, i32* %51, align 4, !tbaa !5
  br label %56

56:                                               ; preds = %49, %55
  %57 = add nuw nsw i64 %50, 1
  %58 = getelementptr inbounds [302 x i32], [302 x i32]* %1, i64 0, i64 %57
  %59 = load i32, i32* %58, align 4, !tbaa !5
  %60 = load i32, i32* %30, align 4, !tbaa !5
  %61 = icmp eq i32 %59, %60
  br i1 %61, label %83, label %84

62:                                               ; preds = %23, %0, %8
  %63 = getelementptr inbounds [302 x i32], [302 x i32]* %1, i64 0, i64 0
  %64 = load i32, i32* %63, align 16, !tbaa !5
  %65 = call i32 (i8*, ...) @printf(i8* nonnull dereferenceable(1) getelementptr inbounds ([3 x i8], [3 x i8]* @.str, i64 0, i64 0), i32 %64)
  %66 = load i32, i32* %2, align 4, !tbaa !5
  %67 = icmp sgt i32 %66, 1
  br i1 %67, label %68, label %82

68:                                               ; preds = %62, %77
  %69 = phi i32 [ %78, %77 ], [ %66, %62 ]
  %70 = phi i64 [ %79, %77 ], [ 1, %62 ]
  %71 = getelementptr inbounds [302 x i32], [302 x i32]* %1, i64 0, i64 %70
  %72 = load i32, i32* %71, align 4, !tbaa !5
  %73 = icmp sgt i32 %72, -1
  br i1 %73, label %74, label %77

74:                                               ; preds = %68
  %75 = call i32 (i8*, ...) @printf(i8* nonnull dereferenceable(1) getelementptr inbounds ([4 x i8], [4 x i8]* @.str.1, i64 0, i64 0), i32 %72)
  %76 = load i32, i32* %2, align 4, !tbaa !5
  br label %77

77:                                               ; preds = %68, %74
  %78 = phi i32 [ %69, %68 ], [ %76, %74 ]
  %79 = add nuw nsw i64 %70, 1
  %80 = sext i32 %78 to i64
  %81 = icmp slt i64 %79, %80
  br i1 %81, label %68, label %82, !llvm.loop !12

82:                                               ; preds = %77, %62
  call void @llvm.lifetime.end.p0i8(i64 4, i8* nonnull %4) #3
  call void @llvm.lifetime.end.p0i8(i64 1208, i8* nonnull %3) #3
  ret void

83:                                               ; preds = %56
  store i32 -1, i32* %58, align 4, !tbaa !5
  br label %84

84:                                               ; preds = %83, %56
  %85 = add nuw nsw i64 %50, 2
  %86 = icmp eq i64 %85, %13
  br i1 %86, label %23, label %49, !llvm.loop !13
}

; Function Attrs: argmemonly mustprogress nofree nosync nounwind willreturn
declare void @llvm.lifetime.start.p0i8(i64 immarg, i8* nocapture) #1

; Function Attrs: nofree nounwind
declare noundef i32 @__isoc99_scanf(i8* nocapture noundef readonly, ...) local_unnamed_addr #2

; Function Attrs: nofree nounwind
declare noundef i32 @printf(i8* nocapture noundef readonly, ...) local_unnamed_addr #2

; Function Attrs: argmemonly mustprogress nofree nosync nounwind willreturn
declare void @llvm.lifetime.end.p0i8(i64 immarg, i8* nocapture) #1


!llvm.module.flags = !{!0, !1, !2, !3}
!llvm.ident = !{!4}

!0 = !{i32 1, !"wchar_size", i32 4}
!1 = !{i32 7, !"PIC Level", i32 2}
!2 = !{i32 7, !"PIE Level", i32 2}
!3 = !{i32 7, !"uwtable", i32 1}
!4 = !{!"clang version 13.0.0"}
!5 = !{!6, !6, i64 0}
!6 = !{!"int", !7, i64 0}
!7 = !{!"omnipotent char", !8, i64 0}
!8 = !{!"Simple C/C++ TBAA"}
!9 = distinct !{!9, !10}
!10 = !{!"llvm.loop.mustprogress"}
!11 = distinct !{!11, !10}
!12 = distinct !{!12, !10}
!13 = distinct !{!13, !10}
